; Function Attrs: mustprogress nounwind uwtable
define dso_local noundef double @_ZNK4node9inspector8protocol15DictionaryValue14doublePropertyERKNSt7__cxx1112basic_stringIcSt11char_traitsIcESaIcEEEd(ptr noundef nonnull align 8 dereferenceable(96) %this, ptr noundef nonnull align 8 dereferenceable(32) %name, double noundef %defaultValue) local_unnamed_addr #1 align 2 {
entry:
  %result = alloca double, align 8
  store double %defaultValue, ptr %result, align 8
  %m_data.i.i = getelementptr inbounds i8, ptr %this, i64 16
  %call.i.i.i = tail call ptr @_ZNKSt10_HashtableINSt7__cxx1112basic_stringIcSt11char_traitsIcESaIcEEESt4pairIKS5_St10unique_ptrIN4node9inspector8protocol5ValueESt14default_deleteISC_EEESaISG_ENSt8__detail10_Select1stESt8equal_toIS5_ESt4hashIS5_ENSI_18_Mod_range_hashingENSI_20_Default_ranged_hashENSI_20_Prime_rehash_policyENSI_17_Hashtable_traitsILb1ELb0ELb1EEEE4findERS7_(ptr noundef nonnull align 8 dereferenceable(56) %m_data.i.i, ptr noundef nonnull align 8 dereferenceable(32) %name)
  %cmp.i.i.i = icmp eq ptr %call.i.i.i, null
  br i1 %cmp.i.i.i, label %_ZNK4node9inspector8protocol15DictionaryValue9getDoubleERKNSt7__cxx1112basic_stringIcSt11char_traitsIcESaIcEEEPd.exit, label %_ZNK4node9inspector8protocol15DictionaryValue3getERKNSt7__cxx1112basic_stringIcSt11char_traitsIcESaIcEEE.exit.i

_ZNK4node9inspector8protocol15DictionaryValue3getERKNSt7__cxx1112basic_stringIcSt11char_traitsIcESaIcEEE.exit.i: ; preds = %entry
  %second.i.i = getelementptr inbounds i8, ptr %call.i.i.i, i64 40
  %0 = load ptr, ptr %second.i.i, align 8
  %tobool.not.i = icmp eq ptr %0, null
  br i1 %tobool.not.i, label %_ZNK4node9inspector8protocol15DictionaryValue9getDoubleERKNSt7__cxx1112basic_stringIcSt11char_traitsIcESaIcEEEPd.exit, label %if.end.i

if.end.i:                                         ; preds = %_ZNK4node9inspector8protocol15DictionaryValue3getERKNSt7__cxx1112basic_stringIcSt11char_traitsIcESaIcEEE.exit.i
  %vtable.i = load ptr, ptr %0, align 8
  %vfn.i = getelementptr inbounds i8, ptr %vtable.i, i64 40
  %1 = load ptr, ptr %vfn.i, align 8
  %call2.i = call noundef zeroext i1 %1(ptr noundef nonnull align 8 dereferenceable(12) %0, ptr noundef nonnull %result) #27
  %.pre = load double, ptr %result, align 8
  br label %_ZNK4node9inspector8protocol15DictionaryValue9getDoubleERKNSt7__cxx1112basic_stringIcSt11char_traitsIcESaIcEEEPd.exit

_ZNK4node9inspector8protocol15DictionaryValue9getDoubleERKNSt7__cxx1112basic_stringIcSt11char_traitsIcESaIcEEEPd.exit: ; preds = %entry, %_ZNK4node9inspector8protocol15DictionaryValue3getERKNSt7__cxx1112basic_stringIcSt11char_traitsIcESaIcEEE.exit.i, %if.end.i
  %2 = phi double [ %defaultValue, %entry ], [ %defaultValue, %_ZNK4node9inspector8protocol15DictionaryValue3getERKNSt7__cxx1112basic_stringIcSt11char_traitsIcESaIcEEE.exit.i ], [ %.pre, %if.end.i ]
  ret double %2
}